#include <math.h>
#include <stdio.h>
#include <stdlib.h>
#include <string.h>

int main()
{
	char a[1000],b[1000][1000];
	int n,i,j,len[1000];
	scanf("%d",&n);
	gets(a);
	for(i=0;i<n;i++)
	{
		gets(a);
		len[i]=strlen(a);
		for(j=0;j<len[i];j++)
		{
			if(a[j]=='A')
			{
				b[i][j]='T';
			}
			if(a[j]=='T')
			{
				b[i][j]='A';
			}
			if(a[j]=='C')
			{
				b[i][j]='G';
			}
			if(a[j]=='G')
			{
				b[i][j]='C';
			}
		}
	}
	
	for(i=0;i<n;i++)
	{
		for(j=0;j<len[i];j++)
		{
			printf("%c",b[i][j]);
		}
		printf("\n");
	}
	return 0;
}
			
